target datalayout = "e-m:e-p270:32:32-p271:32:32-p272:64:64-i64:64-i128:128-f80:128-n8:16:32:64-S128"
target triple = "x86_64-pc-linux-gnu"

%struct.strbuf = type { i64, i64, ptr }
%struct.anon = type { ptr, ptr }

@__const.cmd_main.scalar_usage = private unnamed_addr constant %struct.strbuf { i64 0, i64 0, ptr @strbuf_slopbuf }, align 8
@.str.1 = private unnamed_addr constant [3 x i8] c"-C\00", align 1
@.str.2 = private unnamed_addr constant [26 x i8] c"-C requires a <directory>\00", align 1
@.str.3 = private unnamed_addr constant [25 x i8] c"could not change to '%s'\00", align 1
@.str.4 = private unnamed_addr constant [3 x i8] c"-c\00", align 1
@.str.5 = private unnamed_addr constant [37 x i8] c"-c requires a <key>=<value> argument\00", align 1
@.str.6 = private unnamed_addr constant [77 x i8] c"scalar [-C <directory>] [-c <key>=<value>] <command> [<options>]\0A\0ACommands:\0A\00", align 1
@.str.7 = private unnamed_addr constant [5 x i8] c"\09%s\0A\00", align 1

; Function Attrs: inlinehint nounwind uwtable
define internal void @strbuf_addstr(ptr noundef %0, ptr noundef %1) #5 {
  %3 = alloca ptr, align 8
  %4 = alloca ptr, align 8
  store ptr %0, ptr %3, align 8, !tbaa !26
  store ptr %1, ptr %4, align 8, !tbaa !4
  %5 = load ptr, ptr %3, align 8, !tbaa !26
  %6 = load ptr, ptr %4, align 8, !tbaa !4
  %7 = load ptr, ptr %4, align 8, !tbaa !4
  %8 = call i64 @strlen(ptr noundef %7) #13
  call void @strbuf_add(ptr noundef %5, ptr noundef %6, i64 noundef %8)
  ret void
}

; Function Attrs: nounwind uwtable
define dso_local i32 @cmd_main(i32 noundef %0, ptr noundef %1) #0 {
  %3 = alloca i32, align 4
  %4 = alloca ptr, align 8
  %5 = alloca %struct.strbuf, align 8
  %6 = alloca i32, align 4
  store i32 %0, ptr %3, align 4, !tbaa !11
  store ptr %1, ptr %4, align 8, !tbaa !13
  call void @llvm.lifetime.start.p0(i64 24, ptr %5) #12
  call void @llvm.memcpy.p0.p0.i64(ptr align 8 %5, ptr align 8 @__const.cmd_main.scalar_usage, i64 24, i1 false)
  call void @llvm.lifetime.start.p0(i64 4, ptr %6) #12
  br label %7

7:                                                ; preds = %67, %2
  %8 = load i32, ptr %3, align 4, !tbaa !11
  %9 = icmp sgt i32 %8, 1
  br i1 %9, label %10, label %17

10:                                               ; preds = %7
  %11 = load ptr, ptr %4, align 8, !tbaa !13
  %12 = getelementptr inbounds ptr, ptr %11, i64 1
  %13 = load ptr, ptr %12, align 8, !tbaa !4
  %14 = load i8, ptr %13, align 1, !tbaa !15
  %15 = sext i8 %14 to i32
  %16 = icmp eq i32 %15, 45
  br label %17

17:                                               ; preds = %10, %7
  %18 = phi i1 [ false, %7 ], [ %16, %10 ]
  br i1 %18, label %19, label %68

19:                                               ; preds = %17
  %20 = load ptr, ptr %4, align 8, !tbaa !13
  %21 = getelementptr inbounds ptr, ptr %20, i64 1
  %22 = load ptr, ptr %21, align 8, !tbaa !4
  %23 = call i32 @strcmp(ptr noundef %22, ptr noundef @.str.1) #13
  %24 = icmp ne i32 %23, 0
  br i1 %24, label %46, label %25

25:                                               ; preds = %19
  %26 = load i32, ptr %3, align 4, !tbaa !11
  %27 = icmp slt i32 %26, 3
  br i1 %27, label %28, label %30

28:                                               ; preds = %25
  %29 = call ptr @_(ptr noundef @.str.2)
  call void (ptr, ...) @die(ptr noundef %29) #11
  unreachable

30:                                               ; preds = %25
  %31 = load ptr, ptr %4, align 8, !tbaa !13
  %32 = getelementptr inbounds ptr, ptr %31, i64 2
  %33 = load ptr, ptr %32, align 8, !tbaa !4
  %34 = call i32 @chdir(ptr noundef %33) #12
  %35 = icmp slt i32 %34, 0
  br i1 %35, label %36, label %41

36:                                               ; preds = %30
  %37 = call ptr @_(ptr noundef @.str.3)
  %38 = load ptr, ptr %4, align 8, !tbaa !13
  %39 = getelementptr inbounds ptr, ptr %38, i64 2
  %40 = load ptr, ptr %39, align 8, !tbaa !4
  call void (ptr, ...) @die_errno(ptr noundef %37, ptr noundef %40) #11
  unreachable

41:                                               ; preds = %30
  %42 = load i32, ptr %3, align 4, !tbaa !11
  %43 = sub nsw i32 %42, 2
  store i32 %43, ptr %3, align 4, !tbaa !11
  %44 = load ptr, ptr %4, align 8, !tbaa !13
  %45 = getelementptr inbounds ptr, ptr %44, i64 2
  store ptr %45, ptr %4, align 8, !tbaa !13
  br label %67

46:                                               ; preds = %19
  %47 = load ptr, ptr %4, align 8, !tbaa !13
  %48 = getelementptr inbounds ptr, ptr %47, i64 1
  %49 = load ptr, ptr %48, align 8, !tbaa !4
  %50 = call i32 @strcmp(ptr noundef %49, ptr noundef @.str.4) #13
  %51 = icmp ne i32 %50, 0
  br i1 %51, label %65, label %52

52:                                               ; preds = %46
  %53 = load i32, ptr %3, align 4, !tbaa !11
  %54 = icmp slt i32 %53, 3
  br i1 %54, label %55, label %57

55:                                               ; preds = %52
  %56 = call ptr @_(ptr noundef @.str.5)
  call void (ptr, ...) @die(ptr noundef %56) #11
  unreachable

57:                                               ; preds = %52
  %58 = load ptr, ptr %4, align 8, !tbaa !13
  %59 = getelementptr inbounds ptr, ptr %58, i64 2
  %60 = load ptr, ptr %59, align 8, !tbaa !4
  call void @git_config_push_parameter(ptr noundef %60)
  %61 = load i32, ptr %3, align 4, !tbaa !11
  %62 = sub nsw i32 %61, 2
  store i32 %62, ptr %3, align 4, !tbaa !11
  %63 = load ptr, ptr %4, align 8, !tbaa !13
  %64 = getelementptr inbounds ptr, ptr %63, i64 2
  store ptr %64, ptr %4, align 8, !tbaa !13
  br label %66

65:                                               ; preds = %46
  br label %68

66:                                               ; preds = %57
  br label %67

67:                                               ; preds = %66, %41
  br label %7, !llvm.loop !16

68:                                               ; preds = %65, %17
  %69 = load i32, ptr %3, align 4, !tbaa !11
  %70 = icmp sgt i32 %69, 1
  br i1 %70, label %71, label %112

71:                                               ; preds = %68
  %72 = load ptr, ptr %4, align 8, !tbaa !13
  %73 = getelementptr inbounds nuw ptr, ptr %72, i32 1
  store ptr %73, ptr %4, align 8, !tbaa !13
  %74 = load i32, ptr %3, align 4, !tbaa !11
  %75 = add nsw i32 %74, -1
  store i32 %75, ptr %3, align 4, !tbaa !11
  store i32 0, ptr %6, align 4, !tbaa !11
  br label %76

76:                                               ; preds = %108, %71
  %77 = load i32, ptr %6, align 4, !tbaa !11
  %78 = sext i32 %77 to i64
  %79 = getelementptr inbounds [11 x %struct.anon], ptr @builtins, i64 0, i64 %78
  %80 = getelementptr inbounds nuw %struct.anon, ptr %79, i32 0, i32 0
  %81 = load ptr, ptr %80, align 16, !tbaa !18
  %82 = icmp ne ptr %81, null
  br i1 %82, label %83, label %111

83:                                               ; preds = %76
  %84 = load i32, ptr %6, align 4, !tbaa !11
  %85 = sext i32 %84 to i64
  %86 = getelementptr inbounds [11 x %struct.anon], ptr @builtins, i64 0, i64 %85
  %87 = getelementptr inbounds nuw %struct.anon, ptr %86, i32 0, i32 0
  %88 = load ptr, ptr %87, align 16, !tbaa !18
  %89 = load ptr, ptr %4, align 8, !tbaa !13
  %90 = getelementptr inbounds ptr, ptr %89, i64 0
  %91 = load ptr, ptr %90, align 8, !tbaa !4
  %92 = call i32 @strcmp(ptr noundef %88, ptr noundef %91) #13
  %93 = icmp ne i32 %92, 0
  br i1 %93, label %107, label %94

94:                                               ; preds = %83
  %95 = load i32, ptr %6, align 4, !tbaa !11
  %96 = sext i32 %95 to i64
  %97 = getelementptr inbounds [11 x %struct.anon], ptr @builtins, i64 0, i64 %96
  %98 = getelementptr inbounds nuw %struct.anon, ptr %97, i32 0, i32 1
  %99 = load ptr, ptr %98, align 8, !tbaa !20
  %100 = load i32, ptr %3, align 4, !tbaa !11
  %101 = load ptr, ptr %4, align 8, !tbaa !13
  %102 = call i32 %99(i32 noundef %100, ptr noundef %101)
  %103 = icmp ne i32 %102, 0
  %104 = xor i1 %103, true
  %105 = xor i1 %104, true
  %106 = zext i1 %105 to i32
  call void @llvm.lifetime.end.p0(i64 4, ptr %6) #12
  call void @llvm.lifetime.end.p0(i64 24, ptr %5) #12
  ret i32 %106

107:                                              ; preds = %83
  br label %108

108:                                              ; preds = %107
  %109 = load i32, ptr %6, align 4, !tbaa !11
  %110 = add nsw i32 %109, 1
  store i32 %110, ptr %6, align 4, !tbaa !11
  br label %76, !llvm.loop !21

111:                                              ; preds = %76
  br label %112

112:                                              ; preds = %111, %68
  call void @strbuf_addstr(ptr noundef %5, ptr noundef @.str.6)
  store i32 0, ptr %6, align 4, !tbaa !11
  br label %113

113:                                              ; preds = %126, %112
  %114 = load i32, ptr %6, align 4, !tbaa !11
  %115 = sext i32 %114 to i64
  %116 = getelementptr inbounds [11 x %struct.anon], ptr @builtins, i64 0, i64 %115
  %117 = getelementptr inbounds nuw %struct.anon, ptr %116, i32 0, i32 0
  %118 = load ptr, ptr %117, align 16, !tbaa !18
  %119 = icmp ne ptr %118, null
  br i1 %119, label %120, label %129

120:                                              ; preds = %113
  %121 = load i32, ptr %6, align 4, !tbaa !11
  %122 = sext i32 %121 to i64
  %123 = getelementptr inbounds [11 x %struct.anon], ptr @builtins, i64 0, i64 %122
  %124 = getelementptr inbounds nuw %struct.anon, ptr %123, i32 0, i32 0
  %125 = load ptr, ptr %124, align 16, !tbaa !18
  call void (ptr, ptr, ...) @strbuf_addf(ptr noundef %5, ptr noundef @.str.7, ptr noundef %125)
  br label %126

126:                                              ; preds = %120
  %127 = load i32, ptr %6, align 4, !tbaa !11
  %128 = add nsw i32 %127, 1
  store i32 %128, ptr %6, align 4, !tbaa !11
  br label %113, !llvm.loop !22

129:                                              ; preds = %113
  %130 = getelementptr inbounds nuw %struct.strbuf, ptr %5, i32 0, i32 2
  %131 = load ptr, ptr %130, align 8, !tbaa !23
  call void @usage(ptr noundef %131) #11
  unreachable
}