; Function Attrs: nounwind uwtable
define dso_local range(i32 0, 2) i32 @cmd_main(i32 noundef %0, ptr noundef %1) local_unnamed_addr #2 {
  %3 = alloca %struct.strbuf, align 8
  call void @llvm.lifetime.start.p0(i64 24, ptr nonnull %3) #18
  call void @llvm.memcpy.p0.p0.i64(ptr noundef nonnull align 8 dereferenceable(24) %3, ptr noundef nonnull align 8 dereferenceable(24) @__const.cmd_diagnose.diagnostics_root, i64 24, i1 false)
  %4 = icmp sgt i32 %0, 1
  br i1 %4, label %.lr.ph, label %.critedge35

.lr.ph:                                           ; preds = %2, %38
  %.02556 = phi ptr [ %.126, %38 ], [ %1, %2 ]
  %.02755 = phi i32 [ %.128, %38 ], [ %0, %2 ]
  %5 = getelementptr inbounds nuw i8, ptr %.02556, i64 8
  %6 = load ptr, ptr %5, align 8, !tbaa !4
  %7 = load i8, ptr %6, align 1, !tbaa !9
  %8 = icmp eq i8 %7, 45
  br i1 %8, label %sub_1, label %.critedge

sub_1:                                            ; preds = %.lr.ph
  %9 = getelementptr inbounds nuw i8, ptr %6, i64 1
  %10 = load i8, ptr %9, align 1
  %.not60 = icmp eq i8 %10, 67
  br i1 %.not60, label %.tail, label %sub_138

.tail:                                            ; preds = %sub_1
  %11 = getelementptr inbounds nuw i8, ptr %6, i64 2
  %12 = load i8, ptr %11, align 1
  %13 = icmp eq i8 %12, 0
  br i1 %13, label %14, label %sub_138

14:                                               ; preds = %.tail
  %15 = icmp eq i32 %.02755, 2
  br i1 %15, label %16, label %18

16:                                               ; preds = %14
  %17 = tail call fastcc ptr @_(ptr noundef nonnull @.str.2)
  tail call void (ptr, ...) @die(ptr noundef %17) #17
  unreachable

18:                                               ; preds = %14
  %19 = getelementptr inbounds nuw i8, ptr %.02556, i64 16
  %20 = load ptr, ptr %19, align 8, !tbaa !4
  %21 = tail call i32 @chdir(ptr noundef %20) #18
  %22 = icmp slt i32 %21, 0
  br i1 %22, label %23, label %38

23:                                               ; preds = %18
  %24 = tail call fastcc ptr @_(ptr noundef nonnull @.str.3)
  %25 = load ptr, ptr %19, align 8, !tbaa !4
  tail call void (ptr, ...) @die_errno(ptr noundef %24, ptr noundef %25) #17
  unreachable

sub_138:                                          ; preds = %sub_1, %.tail
  %26 = getelementptr inbounds nuw i8, ptr %6, i64 1
  %27 = load i8, ptr %26, align 1
  %.not62 = icmp eq i8 %27, 99
  br i1 %.not62, label %.tail36, label %.critedge

.tail36:                                          ; preds = %sub_138
  %28 = getelementptr inbounds nuw i8, ptr %6, i64 2
  %29 = load i8, ptr %28, align 1
  %30 = icmp eq i8 %29, 0
  br i1 %30, label %31, label %.critedge

31:                                               ; preds = %.tail36
  %32 = icmp eq i32 %.02755, 2
  br i1 %32, label %33, label %35

33:                                               ; preds = %31
  %34 = tail call fastcc ptr @_(ptr noundef nonnull @.str.5)
  tail call void (ptr, ...) @die(ptr noundef %34) #17
  unreachable

35:                                               ; preds = %31
  %36 = getelementptr inbounds nuw i8, ptr %.02556, i64 16
  %37 = load ptr, ptr %36, align 8, !tbaa !4
  tail call void @git_config_push_parameter(ptr noundef %37) #18
  br label %38

38:                                               ; preds = %18, %35
  %.126 = phi ptr [ %36, %35 ], [ %19, %18 ]
  %.128 = add nsw i32 %.02755, -2
  %39 = icmp sgt i32 %.02755, 3
  br i1 %39, label %.lr.ph, label %.critedge35, !llvm.loop !10

.critedge:                                        ; preds = %sub_138, %.lr.ph, %.tail36
  %40 = tail call i32 @strcmp(ptr noundef nonnull dereferenceable(6) @.str.9, ptr noundef nonnull dereferenceable(1) %6) #19
  %.not34119 = icmp eq i32 %40, 0
  br i1 %.not34119, label %._crit_edge, label %.lr.ph121

.lr.ph121:                                        ; preds = %.critedge, %41
  %indvars.iv120 = phi i64 [ %indvars.iv.next, %41 ], [ 0, %.critedge ]
  %indvars.iv.next = add nuw nsw i64 %indvars.iv120, 1
  %exitcond = icmp eq i64 %indvars.iv.next, 10
  br i1 %exitcond, label %.critedge35, label %41, !llvm.loop !12

41:                                               ; preds = %.lr.ph121
  %42 = getelementptr inbounds nuw [11 x %struct.anon], ptr @builtins, i64 0, i64 %indvars.iv.next
  %43 = load ptr, ptr %42, align 16, !tbaa !13
  %44 = tail call i32 @strcmp(ptr noundef nonnull dereferenceable(1) %43, ptr noundef nonnull dereferenceable(1) %6) #19
  %.not34 = icmp eq i32 %44, 0
  br i1 %.not34, label %._crit_edge, label %.lr.ph121, !llvm.loop !12

._crit_edge:                                      ; preds = %41, %.critedge
  %.lcssa = phi ptr [ @builtins, %.critedge ], [ %42, %41 ]
  %45 = getelementptr inbounds nuw i8, ptr %.02556, i64 8
  %46 = add nsw i32 %.02755, -1
  %47 = getelementptr inbounds nuw i8, ptr %.lcssa, i64 8
  %48 = load ptr, ptr %47, align 8, !tbaa !15
  %49 = tail call i32 %48(i32 noundef %46, ptr noundef nonnull %45) #18
  %50 = icmp ne i32 %49, 0
  %51 = zext i1 %50 to i32
  call void @llvm.lifetime.end.p0(i64 24, ptr nonnull %3) #18
  ret i32 %51

.critedge35:                                      ; preds = %38, %.lr.ph121, %2
  call void @strbuf_add(ptr noundef nonnull %3, ptr noundef nonnull @.str.6, i64 noundef 76) #18
  br label %52

52:                                               ; preds = %.critedge35, %52
  %indvars.iv80 = phi i64 [ 0, %.critedge35 ], [ %indvars.iv.next81, %52 ]
  %53 = phi ptr [ @.str.9, %.critedge35 ], [ %55, %52 ]
  call void (ptr, ptr, ...) @strbuf_addf(ptr noundef nonnull %3, ptr noundef nonnull @.str.7, ptr noundef nonnull %53) #18
  %indvars.iv.next81 = add nuw nsw i64 %indvars.iv80, 1
  %54 = getelementptr inbounds nuw [11 x %struct.anon], ptr @builtins, i64 0, i64 %indvars.iv.next81
  %55 = load ptr, ptr %54, align 16, !tbaa !13
  %exitcond83 = icmp eq i64 %indvars.iv.next81, 10
  br i1 %exitcond83, label %56, label %52, !llvm.loop !16

56:                                               ; preds = %52
  %57 = getelementptr inbounds nuw i8, ptr %3, i64 16
  %58 = load ptr, ptr %57, align 8, !tbaa !17
  call void @usage(ptr noundef %58) #17
  unreachable
}